target datalayout = "e-m:e-p270:32:32-p271:32:32-p272:64:64-i64:64-i128:128-f80:128-n8:16:32:64-S128"
target triple = "x86_64-pc-linux-gnu"

%struct.ident_t = type { i32, i32, i32, i32, ptr }
%"struct.faiss::(anonymous namespace)::ArgsortComparator" = type { ptr }
%"struct.std::_Vector_base" = type { %"struct.std::_Vector_base<faiss::(anonymous namespace)::SegmentS, std::allocator<faiss::(anonymous namespace)::SegmentS>>::_Vector_impl" }
%"struct.std::_Vector_base<faiss::(anonymous namespace)::SegmentS, std::allocator<faiss::(anonymous namespace)::SegmentS>>::_Vector_impl" = type { %"struct.std::_Vector_base<faiss::(anonymous namespace)::SegmentS, std::allocator<faiss::(anonymous namespace)::SegmentS>>::_Vector_impl_data" }
%"struct.std::_Vector_base<faiss::(anonymous namespace)::SegmentS, std::allocator<faiss::(anonymous namespace)::SegmentS>>::_Vector_impl_data" = type { ptr, ptr, ptr }
%"struct.faiss::(anonymous namespace)::SegmentS" = type { i64, i64 }

@2 = private unnamed_addr constant %struct.ident_t { i32 0, i32 514, i32 0, i32 22, ptr @0 }, align 8

; Function Attrs: mustprogress nounwind uwtable
define internal noundef zeroext i1 @_ZNK5faiss12_GLOBAL__N_117ArgsortComparatorclEmm(ptr noundef nonnull align 8 dereferenceable(8) %0, i64 noundef %1, i64 noundef %2) #2 align 2 {
  %4 = alloca ptr, align 8
  %5 = alloca i64, align 8
  %6 = alloca i64, align 8
  store ptr %0, ptr %4, align 8
  store i64 %1, ptr %5, align 8
  store i64 %2, ptr %6, align 8
  %7 = load ptr, ptr %4, align 8
  %8 = getelementptr inbounds %"struct.faiss::(anonymous namespace)::ArgsortComparator", ptr %7, i32 0, i32 0
  %9 = load ptr, ptr %8, align 8
  %10 = load i64, ptr %5, align 8
  %11 = getelementptr inbounds float, ptr %9, i64 %10
  %12 = load float, ptr %11, align 4
  %13 = getelementptr inbounds %"struct.faiss::(anonymous namespace)::ArgsortComparator", ptr %7, i32 0, i32 0
  %14 = load ptr, ptr %13, align 8
  %15 = load i64, ptr %6, align 8
  %16 = getelementptr inbounds float, ptr %14, i64 %15
  %17 = load float, ptr %16, align 4
  %18 = fcmp olt float %12, %17
  ret i1 %18
}

; Function Attrs: mustprogress nounwind uwtable
define internal noundef nonnull align 8 dereferenceable(16) ptr @_ZNSt6vectorIN5faiss12_GLOBAL__N_18SegmentSESaIS2_EEixEm(ptr noundef nonnull align 8 dereferenceable(24) %0, i64 noundef %1) #2 align 2 {
  %3 = alloca ptr, align 8
  %4 = alloca i64, align 8
  store ptr %0, ptr %3, align 8
  store i64 %1, ptr %4, align 8
  %5 = load ptr, ptr %3, align 8
  %6 = getelementptr inbounds %"struct.std::_Vector_base", ptr %5, i32 0, i32 0
  %7 = getelementptr inbounds %"struct.std::_Vector_base<faiss::(anonymous namespace)::SegmentS, std::allocator<faiss::(anonymous namespace)::SegmentS>>::_Vector_impl_data", ptr %6, i32 0, i32 0
  %8 = load ptr, ptr %7, align 8
  %9 = load i64, ptr %4, align 8
  %10 = getelementptr inbounds %"struct.faiss::(anonymous namespace)::SegmentS", ptr %8, i64 %9
  ret ptr %10
}

; Function Attrs: mustprogress nounwind uwtable
define internal noundef i64 @_ZNK5faiss12_GLOBAL__N_18SegmentS3lenEv(ptr noundef nonnull align 8 dereferenceable(16) %0) #2 align 2 {
  %2 = alloca ptr, align 8
  store ptr %0, ptr %2, align 8
  %3 = load ptr, ptr %2, align 8
  %4 = getelementptr inbounds %"struct.faiss::(anonymous namespace)::SegmentS", ptr %3, i32 0, i32 1
  %5 = load i64, ptr %4, align 8
  %6 = getelementptr inbounds %"struct.faiss::(anonymous namespace)::SegmentS", ptr %3, i32 0, i32 0
  %7 = load i64, ptr %6, align 8
  %8 = sub i64 %5, %7
  ret i64 %8
}

; Function Attrs: norecurse nounwind uwtable
define internal void @_ZN5faiss12_GLOBAL__N_114parallel_mergeImEEvPKT_PS2_RNS0_8SegmentSES7_iRKNS0_17ArgsortComparatorE.omp_outlined(ptr noalias noundef %0, ptr noalias noundef %1, ptr noundef nonnull align 4 dereferenceable(4) %2, ptr noundef nonnull align 8 dereferenceable(24) %3, ptr noundef nonnull align 8 dereferenceable(16) %4, ptr noundef nonnull align 8 dereferenceable(8) %5, ptr noundef nonnull align 8 dereferenceable(16) %6, ptr noundef nonnull align 8 dereferenceable(8) %7, ptr noundef nonnull align 8 dereferenceable(24) %8) #6 {
  %10 = alloca ptr, align 8
  %11 = alloca ptr, align 8
  %12 = alloca ptr, align 8
  %13 = alloca ptr, align 8
  %14 = alloca ptr, align 8
  %15 = alloca ptr, align 8
  %16 = alloca ptr, align 8
  %17 = alloca ptr, align 8
  %18 = alloca ptr, align 8
  %19 = alloca ptr, align 8
  %20 = alloca ptr, align 8
  %21 = alloca ptr, align 8
  %22 = alloca i32, align 4
  %23 = alloca i32, align 4
  %24 = alloca i32, align 4
  %25 = alloca i32, align 4
  %26 = alloca i32, align 4
  %27 = alloca i32, align 4
  %28 = alloca i32, align 4
  %29 = alloca i32, align 4
  %30 = alloca i32, align 4
  %31 = alloca i64, align 8
  %32 = alloca i64, align 8
  %33 = alloca i64, align 8
  %34 = alloca i64, align 8
  store ptr %0, ptr %10, align 8
  store ptr %1, ptr %11, align 8
  store ptr %2, ptr %12, align 8
  store ptr %3, ptr %13, align 8
  store ptr %4, ptr %14, align 8
  store ptr %5, ptr %15, align 8
  store ptr %6, ptr %16, align 8
  store ptr %7, ptr %17, align 8
  store ptr %8, ptr %18, align 8
  %35 = load ptr, ptr %12, align 8
  %36 = load ptr, ptr %13, align 8
  %37 = load ptr, ptr %14, align 8
  %38 = load ptr, ptr %15, align 8
  %39 = load ptr, ptr %16, align 8
  %40 = load ptr, ptr %17, align 8
  %41 = load ptr, ptr %18, align 8
  store ptr %37, ptr %19, align 8
  store ptr %39, ptr %20, align 8
  store ptr %40, ptr %21, align 8
  %42 = load i32, ptr %35, align 4
  store i32 %42, ptr %23, align 4
  %43 = load i32, ptr %23, align 4
  %44 = sub nsw i32 %43, 0
  %45 = sdiv i32 %44, 1
  %46 = sub nsw i32 %45, 1
  store i32 %46, ptr %24, align 4
  store i32 0, ptr %25, align 4
  %47 = load i32, ptr %23, align 4
  %48 = icmp slt i32 0, %47
  br i1 %48, label %49, label %165

49:                                               ; preds = %9
  store i32 0, ptr %26, align 4
  %50 = load i32, ptr %24, align 4
  store i32 %50, ptr %27, align 4
  store i32 1, ptr %28, align 4
  store i32 0, ptr %29, align 4
  %51 = load ptr, ptr %10, align 8
  %52 = load i32, ptr %51, align 4
  call void @__kmpc_for_static_init_4(ptr @2, i32 %52, i32 34, ptr %29, ptr %26, ptr %27, ptr %28, i32 1, i32 1)
  %53 = load i32, ptr %27, align 4
  %54 = load i32, ptr %24, align 4
  %55 = icmp sgt i32 %53, %54
  br i1 %55, label %56, label %58

56:                                               ; preds = %49
  %57 = load i32, ptr %24, align 4
  br label %60

58:                                               ; preds = %49
  %59 = load i32, ptr %27, align 4
  br label %60

60:                                               ; preds = %58, %56
  %61 = phi i32 [ %57, %56 ], [ %59, %58 ]
  store i32 %61, ptr %27, align 4
  %62 = load i32, ptr %26, align 4
  store i32 %62, ptr %22, align 4
  br label %63

63:                                               ; preds = %158, %60
  %64 = load i32, ptr %22, align 4
  %65 = load i32, ptr %27, align 4
  %66 = icmp sle i32 %64, %65
  br i1 %66, label %67, label %161

67:                                               ; preds = %63
  %68 = load i32, ptr %22, align 4
  %69 = mul nsw i32 %68, 1
  %70 = add nsw i32 0, %69
  store i32 %70, ptr %30, align 4
  %71 = load ptr, ptr %19, align 8
  %72 = getelementptr inbounds %"struct.faiss::(anonymous namespace)::SegmentS", ptr %71, i32 0, i32 0
  %73 = load i64, ptr %72, align 8
  %74 = load ptr, ptr %19, align 8
  %75 = call noundef i64 @_ZNK5faiss12_GLOBAL__N_18SegmentS3lenEv(ptr noundef nonnull align 8 dereferenceable(16) %74)
  %76 = load i32, ptr %30, align 4
  %77 = sext i32 %76 to i64
  %78 = mul i64 %75, %77
  %79 = load i32, ptr %35, align 4
  %80 = sext i32 %79 to i64
  %81 = udiv i64 %78, %80
  %82 = add i64 %73, %81
  %83 = load i32, ptr %30, align 4
  %84 = sext i32 %83 to i64
  %85 = call noundef nonnull align 8 dereferenceable(16) ptr @_ZNSt6vectorIN5faiss12_GLOBAL__N_18SegmentSESaIS2_EEixEm(ptr noundef nonnull align 8 dereferenceable(24) %36, i64 noundef %84) #7
  %86 = getelementptr inbounds %"struct.faiss::(anonymous namespace)::SegmentS", ptr %85, i32 0, i32 0
  store i64 %82, ptr %86, align 8
  %87 = load ptr, ptr %19, align 8
  %88 = getelementptr inbounds %"struct.faiss::(anonymous namespace)::SegmentS", ptr %87, i32 0, i32 0
  %89 = load i64, ptr %88, align 8
  %90 = load ptr, ptr %19, align 8
  %91 = call noundef i64 @_ZNK5faiss12_GLOBAL__N_18SegmentS3lenEv(ptr noundef nonnull align 8 dereferenceable(16) %90)
  %92 = load i32, ptr %30, align 4
  %93 = add nsw i32 %92, 1
  %94 = sext i32 %93 to i64
  %95 = mul i64 %91, %94
  %96 = load i32, ptr %35, align 4
  %97 = sext i32 %96 to i64
  %98 = udiv i64 %95, %97
  %99 = add i64 %89, %98
  %100 = load i32, ptr %30, align 4
  %101 = sext i32 %100 to i64
  %102 = call noundef nonnull align 8 dereferenceable(16) ptr @_ZNSt6vectorIN5faiss12_GLOBAL__N_18SegmentSESaIS2_EEixEm(ptr noundef nonnull align 8 dereferenceable(24) %36, i64 noundef %101) #7
  %103 = getelementptr inbounds %"struct.faiss::(anonymous namespace)::SegmentS", ptr %102, i32 0, i32 1
  store i64 %99, ptr %103, align 8
  %104 = load i32, ptr %30, align 4
  %105 = add nsw i32 %104, 1
  %106 = load i32, ptr %35, align 4
  %107 = icmp slt i32 %105, %106
  br i1 %107, label %108, label %156

108:                                              ; preds = %67
  %109 = load ptr, ptr %38, align 8
  %110 = load i32, ptr %30, align 4
  %111 = sext i32 %110 to i64
  %112 = call noundef nonnull align 8 dereferenceable(16) ptr @_ZNSt6vectorIN5faiss12_GLOBAL__N_18SegmentSESaIS2_EEixEm(ptr noundef nonnull align 8 dereferenceable(24) %36, i64 noundef %111) #7
  %113 = getelementptr inbounds %"struct.faiss::(anonymous namespace)::SegmentS", ptr %112, i32 0, i32 1
  %114 = load i64, ptr %113, align 8
  %115 = getelementptr inbounds i64, ptr %109, i64 %114
  %116 = load i64, ptr %115, align 8
  store i64 %116, ptr %31, align 8
  %117 = load ptr, ptr %20, align 8
  %118 = getelementptr inbounds %"struct.faiss::(anonymous namespace)::SegmentS", ptr %117, i32 0, i32 0
  %119 = load i64, ptr %118, align 8
  store i64 %119, ptr %32, align 8
  %120 = load ptr, ptr %20, align 8
  %121 = getelementptr inbounds %"struct.faiss::(anonymous namespace)::SegmentS", ptr %120, i32 0, i32 1
  %122 = load i64, ptr %121, align 8
  store i64 %122, ptr %33, align 8
  br label %123

123:                                              ; preds = %144, %108
  %124 = load i64, ptr %32, align 8
  %125 = add i64 %124, 1
  %126 = load i64, ptr %33, align 8
  %127 = icmp ult i64 %125, %126
  br i1 %127, label %128, label %145

128:                                              ; preds = %123
  %129 = load i64, ptr %33, align 8
  %130 = load i64, ptr %32, align 8
  %131 = add i64 %129, %130
  %132 = udiv i64 %131, 2
  store i64 %132, ptr %34, align 8
  %133 = load ptr, ptr %21, align 8
  %134 = load i64, ptr %31, align 8
  %135 = load ptr, ptr %38, align 8
  %136 = load i64, ptr %34, align 8
  %137 = getelementptr inbounds i64, ptr %135, i64 %136
  %138 = load i64, ptr %137, align 8
  %139 = call noundef zeroext i1 @_ZNK5faiss12_GLOBAL__N_117ArgsortComparatorclEmm(ptr noundef nonnull align 8 dereferenceable(8) %133, i64 noundef %134, i64 noundef %138)
  br i1 %139, label %140, label %142

140:                                              ; preds = %128
  %141 = load i64, ptr %34, align 8
  store i64 %141, ptr %33, align 8
  br label %144

142:                                              ; preds = %128
  %143 = load i64, ptr %34, align 8
  store i64 %143, ptr %32, align 8
  br label %144

144:                                              ; preds = %142, %140
  br label %123, !llvm.loop !27

145:                                              ; preds = %123
  %146 = load i64, ptr %33, align 8
  %147 = load i32, ptr %30, align 4
  %148 = add nsw i32 %147, 1
  %149 = sext i32 %148 to i64
  %150 = call noundef nonnull align 8 dereferenceable(16) ptr @_ZNSt6vectorIN5faiss12_GLOBAL__N_18SegmentSESaIS2_EEixEm(ptr noundef nonnull align 8 dereferenceable(24) %41, i64 noundef %149) #7
  %151 = getelementptr inbounds %"struct.faiss::(anonymous namespace)::SegmentS", ptr %150, i32 0, i32 0
  store i64 %146, ptr %151, align 8
  %152 = load i32, ptr %30, align 4
  %153 = sext i32 %152 to i64
  %154 = call noundef nonnull align 8 dereferenceable(16) ptr @_ZNSt6vectorIN5faiss12_GLOBAL__N_18SegmentSESaIS2_EEixEm(ptr noundef nonnull align 8 dereferenceable(24) %41, i64 noundef %153) #7
  %155 = getelementptr inbounds %"struct.faiss::(anonymous namespace)::SegmentS", ptr %154, i32 0, i32 1
  store i64 %146, ptr %155, align 8
  br label %156

156:                                              ; preds = %145, %67
  br label %157

157:                                              ; preds = %156
  br label %158

158:                                              ; preds = %157
  %159 = load i32, ptr %22, align 4
  %160 = add nsw i32 %159, 1
  store i32 %160, ptr %22, align 4
  br label %63

161:                                              ; preds = %63
  br label %162

162:                                              ; preds = %161
  %163 = load ptr, ptr %10, align 8
  %164 = load i32, ptr %163, align 4
  call void @__kmpc_for_static_fini(ptr @2, i32 %164)
  br label %165

165:                                              ; preds = %162, %9
  ret void
}