; Function Attrs: norecurse nounwind uwtable
define internal void @_ZN5faiss12_GLOBAL__N_114parallel_mergeImEEvPKT_PS2_RNS0_8SegmentSES7_iRKNS0_17ArgsortComparatorE.omp_outlined(ptr noalias nocapture noundef readonly %0, ptr noalias nocapture readnone %1, ptr nocapture noundef nonnull readonly align 4 dereferenceable(4) %2, ptr nocapture noundef nonnull readonly align 8 dereferenceable(24) %3, ptr nocapture noundef nonnull readonly align 8 dereferenceable(16) %4, ptr nocapture noundef nonnull readonly align 8 dereferenceable(8) %5, ptr nocapture noundef nonnull readonly align 8 dereferenceable(16) %6, ptr nocapture noundef nonnull readonly align 8 dereferenceable(8) %7, ptr nocapture noundef nonnull readonly align 8 dereferenceable(24) %8) #8 {
  %10 = alloca i32, align 4
  %11 = alloca i32, align 4
  %12 = alloca i32, align 4
  %13 = alloca i32, align 4
  %14 = load i32, ptr %2, align 4
  %15 = icmp sgt i32 %14, 0
  br i1 %15, label %16, label %71

16:                                               ; preds = %9
  %17 = add nsw i32 %14, -1
  store i32 0, ptr %10, align 4
  store i32 %17, ptr %11, align 4
  store i32 1, ptr %12, align 4
  store i32 0, ptr %13, align 4
  %18 = load i32, ptr %0, align 4
  call void @__kmpc_for_static_init_4(ptr nonnull @2, i32 %18, i32 34, ptr nonnull %13, ptr nonnull %10, ptr nonnull %11, ptr nonnull %12, i32 1, i32 1)
  %19 = load i32, ptr %11, align 4
  %20 = call i32 @llvm.smin.i32(i32 %19, i32 %17)
  store i32 %20, ptr %11, align 4
  %21 = load i32, ptr %10, align 4
  %.not54 = icmp sgt i32 %21, %20
  br i1 %.not54, label %._crit_edge58, label %.lr.ph57

.lr.ph57:                                         ; preds = %16
  %22 = getelementptr inbounds i8, ptr %4, i64 8
  %23 = getelementptr inbounds i8, ptr %6, i64 8
  %24 = sext i32 %21 to i64
  %25 = add nsw i32 %20, 1
  br label %26

26:                                               ; preds = %.lr.ph57, %70
  %indvars.iv = phi i64 [ %24, %.lr.ph57 ], [ %indvars.iv.next, %70 ]
  %27 = load i64, ptr %4, align 8
  %.val51 = load i64, ptr %22, align 8
  %28 = sub i64 %.val51, %27
  %29 = mul i64 %28, %indvars.iv
  %30 = load i32, ptr %2, align 4
  %31 = sext i32 %30 to i64
  %32 = udiv i64 %29, %31
  %33 = add i64 %32, %27
  %.val47 = load ptr, ptr %3, align 8
  %34 = getelementptr inbounds %"struct.faiss::(anonymous namespace)::SegmentS", ptr %.val47, i64 %indvars.iv
  store i64 %33, ptr %34, align 8
  %35 = load i64, ptr %4, align 8
  %.val49 = load i64, ptr %22, align 8
  %36 = sub i64 %.val49, %35
  %indvars.iv.next = add nsw i64 %indvars.iv, 1
  %37 = mul i64 %36, %indvars.iv.next
  %38 = load i32, ptr %2, align 4
  %39 = sext i32 %38 to i64
  %40 = udiv i64 %37, %39
  %41 = add i64 %40, %35
  %.val46 = load ptr, ptr %3, align 8
  %42 = getelementptr inbounds %"struct.faiss::(anonymous namespace)::SegmentS", ptr %.val46, i64 %indvars.iv, i32 1
  store i64 %41, ptr %42, align 8
  %43 = load i32, ptr %2, align 4
  %44 = sext i32 %43 to i64
  %45 = icmp slt i64 %indvars.iv.next, %44
  br i1 %45, label %46, label %70

46:                                               ; preds = %26
  %47 = load ptr, ptr %5, align 8
  %48 = load i64, ptr %6, align 8
  %49 = load i64, ptr %23, align 8
  %50 = add i64 %48, 1
  %51 = icmp ult i64 %50, %49
  br i1 %51, label %.lr.ph, label %._crit_edge

.lr.ph:                                           ; preds = %46
  %.val45 = load ptr, ptr %3, align 8
  %52 = getelementptr inbounds %"struct.faiss::(anonymous namespace)::SegmentS", ptr %.val45, i64 %indvars.iv, i32 1
  %53 = load i64, ptr %52, align 8
  %54 = getelementptr inbounds i64, ptr %47, i64 %53
  %55 = load i64, ptr %54, align 8
  %.val = load ptr, ptr %7, align 8
  %56 = getelementptr inbounds float, ptr %.val, i64 %55
  %57 = load float, ptr %56, align 4
  br label %58

58:                                               ; preds = %.lr.ph, %58
  %.04053 = phi i64 [ %49, %.lr.ph ], [ %..040, %58 ]
  %.04152 = phi i64 [ %48, %.lr.ph ], [ %.041., %58 ]
  %59 = add i64 %.04053, %.04152
  %60 = lshr i64 %59, 1
  %61 = getelementptr inbounds i64, ptr %47, i64 %60
  %62 = load i64, ptr %61, align 8
  %63 = getelementptr inbounds float, ptr %.val, i64 %62
  %64 = load float, ptr %63, align 4
  %65 = fcmp olt float %57, %64
  %.041. = select i1 %65, i64 %.04152, i64 %60
  %..040 = select i1 %65, i64 %60, i64 %.04053
  %66 = add i64 %.041., 1
  %67 = icmp ult i64 %66, %..040
  br i1 %67, label %58, label %._crit_edge, !llvm.loop !27

._crit_edge:                                      ; preds = %58, %46
  %.040.lcssa = phi i64 [ %49, %46 ], [ %..040, %58 ]
  %.val44 = load ptr, ptr %8, align 8
  %68 = getelementptr inbounds %"struct.faiss::(anonymous namespace)::SegmentS", ptr %.val44, i64 %indvars.iv.next
  store i64 %.040.lcssa, ptr %68, align 8
  %.val43 = load ptr, ptr %8, align 8
  %69 = getelementptr inbounds %"struct.faiss::(anonymous namespace)::SegmentS", ptr %.val43, i64 %indvars.iv, i32 1
  store i64 %.040.lcssa, ptr %69, align 8
  br label %70

70:                                               ; preds = %._crit_edge, %26
  %lftr.wideiv = trunc i64 %indvars.iv.next to i32
  %exitcond.not = icmp eq i32 %25, %lftr.wideiv
  br i1 %exitcond.not, label %._crit_edge58, label %26

._crit_edge58:                                    ; preds = %70, %16
  call void @__kmpc_for_static_fini(ptr nonnull @2, i32 %18)
  br label %71

71:                                               ; preds = %._crit_edge58, %9
  ret void
}